; Function Attrs: mustprogress uwtable
define internal void @_ZNK5faiss12_GLOBAL__N_110IVFScannerINS_16HammingComputer8EE16scan_codes_rangeEmPKhPKlfRNS_16RangeQueryResultE(ptr nocapture noundef nonnull readonly align 8 dereferenceable(144) %0, i64 noundef %1, ptr nocapture noundef readonly %2, ptr nocapture noundef readonly %3, float noundef %4, ptr noundef nonnull align 8 dereferenceable(24) %5) unnamed_addr #2 align 2 {
  %.not18 = icmp eq i64 %1, 0
  br i1 %.not18, label %._crit_edge, label %.lr.ph

.lr.ph:                                           ; preds = %6
  %7 = getelementptr inbounds i8, ptr %0, i64 136
  %8 = getelementptr inbounds i8, ptr %0, i64 17
  %9 = getelementptr inbounds i8, ptr %0, i64 8
  %10 = getelementptr inbounds i8, ptr %0, i64 32
  br label %11

11:                                               ; preds = %.lr.ph, %31
  %.017 = phi ptr [ %2, %.lr.ph ], [ %33, %31 ]
  %.01315 = phi i64 [ 0, %.lr.ph ], [ %34, %31 ]
  %12 = load i64, ptr %.017, align 8
  %13 = load i64, ptr %7, align 8
  %14 = xor i64 %13, %12
  %15 = tail call i64 @llvm.ctpop.i64(i64 %14), !range !13
  %16 = trunc i64 %15 to i32
  %17 = sitofp i32 %16 to float
  %18 = fcmp olt float %17, %4
  br i1 %18, label %19, label %31

19:                                               ; preds = %11
  %20 = load i8, ptr %8, align 1
  %21 = and i8 %20, 1
  %.not = icmp eq i8 %21, 0
  br i1 %.not, label %26, label %22

22:                                               ; preds = %19
  %23 = load i64, ptr %9, align 8
  %24 = shl i64 %23, 32
  %25 = or i64 %24, %.01315
  br label %29

26:                                               ; preds = %19
  %27 = getelementptr inbounds i64, ptr %3, i64 %.01315
  %28 = load i64, ptr %27, align 8
  br label %29

29:                                               ; preds = %26, %22
  %30 = phi i64 [ %25, %22 ], [ %28, %26 ]
  tail call void @_ZN5faiss16RangeQueryResult3addEfl(ptr noundef nonnull align 8 dereferenceable(24) %5, float noundef %17, i64 noundef %30)
  br label %31

31:                                               ; preds = %29, %11
  %32 = load i64, ptr %10, align 8
  %33 = getelementptr inbounds i8, ptr %.017, i64 %32
  %34 = add nuw i64 %.01315, 1
  %exitcond.not = icmp eq i64 %34, %1
  br i1 %exitcond.not, label %._crit_edge, label %11, !llvm.loop !30

._crit_edge:                                      ; preds = %31, %6
  ret void
}